target datalayout = "e-m:e-p270:32:32-p271:32:32-p272:64:64-i64:64-i128:128-f80:128-n8:16:32:64-S128"
target triple = "x86_64-pc-linux-gnu"

%"class.std::ios_base" = type { ptr, i64, i64, i32, i32, i32, ptr, %"struct.std::ios_base::_Words", [8 x %"struct.std::ios_base::_Words"], i32, ptr, %"class.std::locale" }
%"struct.std::ios_base::_Words" = type { ptr, i64 }
%"class.std::locale" = type { ptr }
%"struct.std::_Rb_tree_header" = type { %"struct.std::_Rb_tree_node_base", i64 }
%"struct.std::_Rb_tree_node_base" = type { i32, ptr, ptr, ptr }
%"class.std::map.92" = type { %"class.std::_Rb_tree.93" }
%"class.std::_Rb_tree.93" = type { %"struct.std::_Rb_tree<unsigned int, std::pair<const unsigned int, const rocksdb::Comparator *>, std::_Select1st<std::pair<const unsigned int, const rocksdb::Comparator *>>, std::less<unsigned int>>::_Rb_tree_impl" }
%"struct.std::_Rb_tree<unsigned int, std::pair<const unsigned int, const rocksdb::Comparator *>, std::_Select1st<std::pair<const unsigned int, const rocksdb::Comparator *>>, std::less<unsigned int>>::_Rb_tree_impl" = type { [8 x i8], %"struct.std::_Rb_tree_header" }
%"class.rocksdb::Status" = type { i8, i8, i8, i8, i8, i8, %"class.std::unique_ptr.116" }
%"class.std::unique_ptr.116" = type { %"struct.std::__uniq_ptr_data.117" }
%"struct.std::__uniq_ptr_data.117" = type { %"class.std::__uniq_ptr_impl.118" }
%"class.std::__uniq_ptr_impl.118" = type { %"class.std::tuple.119" }
%"class.std::tuple.119" = type { %"struct.std::_Tuple_impl.120" }
%"struct.std::_Tuple_impl.120" = type { %"struct.std::_Head_base.123" }
%"struct.std::_Head_base.123" = type { ptr }
%"class.rocksdb::WriteBatch::Handler" = type { ptr }
%"class.rocksdb::(anonymous namespace)::InMemoryHandler" = type { %"class.rocksdb::WriteBatch::Handler", ptr, i8, i8, %"class.std::map.92" }

@.str.585 = private unnamed_addr constant [6 x i8] c"NOOP \00", align 1

; Function Attrs: mustprogress nounwind uwtable
define linkonce_odr void @_ZNSt10_Head_baseILm1ESt14default_deleteIA_KcELb1EEC2Ev(ptr noundef nonnull align 1 dereferenceable(1) %0) unnamed_addr #8 comdat align 2 {
  %2 = alloca ptr, align 8
  store ptr %0, ptr %2, align 8, !tbaa !1585
  ret void
}

; Function Attrs: mustprogress nounwind uwtable
define linkonce_odr void @_ZNSt10_Head_baseILm0EPKcLb0EEC2Ev(ptr noundef nonnull align 8 dereferenceable(8) %0) unnamed_addr #8 comdat align 2 {
  %2 = alloca ptr, align 8
  store ptr %0, ptr %2, align 8, !tbaa !1581
  %3 = load ptr, ptr %2, align 8
  %4 = getelementptr inbounds nuw %"struct.std::_Head_base.123", ptr %3, i32 0, i32 0
  store ptr null, ptr %4, align 8, !tbaa !1664
  ret void
}

; Function Attrs: mustprogress uwtable
define linkonce_odr void @_ZNSt11_Tuple_implILm1EJSt14default_deleteIA_KcEEEC2Ev(ptr noundef nonnull align 1 dereferenceable(1) %0) unnamed_addr #7 comdat align 2 {
  %2 = alloca ptr, align 8
  store ptr %0, ptr %2, align 8, !tbaa !1583
  %3 = load ptr, ptr %2, align 8
  call void @_ZNSt10_Head_baseILm1ESt14default_deleteIA_KcELb1EEC2Ev(ptr noundef nonnull align 1 dereferenceable(1) %3)
  ret void
}

; Function Attrs: noinline noreturn nounwind uwtable
define linkonce_odr hidden void @__clang_call_terminate(ptr noundef %0) #13 comdat {
  %2 = call ptr @__cxa_begin_catch(ptr %0) #3
  call void @_ZSt9terminatev() #28
  unreachable
}

; Function Attrs: mustprogress uwtable
define linkonce_odr void @_ZNSt11_Tuple_implILm0EJPKcSt14default_deleteIA_S0_EEEC2Ev(ptr noundef nonnull align 8 dereferenceable(8) %0) unnamed_addr #7 comdat align 2 {
  %2 = alloca ptr, align 8
  store ptr %0, ptr %2, align 8, !tbaa !1579
  %3 = load ptr, ptr %2, align 8
  call void @_ZNSt11_Tuple_implILm1EJSt14default_deleteIA_KcEEEC2Ev(ptr noundef nonnull align 1 dereferenceable(1) %3)
  call void @_ZNSt10_Head_baseILm0EPKcLb0EEC2Ev(ptr noundef nonnull align 8 dereferenceable(8) %3)
  ret void
}

; Function Attrs: mustprogress nounwind uwtable
define linkonce_odr void @_ZNSt5tupleIJPKcSt14default_deleteIA_S0_EEEC2ILb1ETnNSt9enable_ifIXclsr17_TupleConstraintsIXT_ES1_S4_EE37__is_implicitly_default_constructibleEEbE4typeELb1EEEv(ptr noundef nonnull align 8 dereferenceable(8) %0) unnamed_addr #8 comdat align 2 personality ptr @__gxx_personality_v0 {
  %2 = alloca ptr, align 8
  store ptr %0, ptr %2, align 8, !tbaa !1577
  %3 = load ptr, ptr %2, align 8
  invoke void @_ZNSt11_Tuple_implILm0EJPKcSt14default_deleteIA_S0_EEEC2Ev(ptr noundef nonnull align 8 dereferenceable(8) %3)
          to label %4 unwind label %5

4:                                                ; preds = %1
  ret void

5:                                                ; preds = %1
  %6 = landingpad { ptr, i32 }
          catch ptr null
  %7 = extractvalue { ptr, i32 } %6, 0
  call void @__clang_call_terminate(ptr %7) #28
  unreachable
}

; Function Attrs: mustprogress nounwind uwtable
define linkonce_odr void @_ZNSt15__uniq_ptr_implIKcSt14default_deleteIA_S0_EEC2Ev(ptr noundef nonnull align 8 dereferenceable(8) %0) unnamed_addr #8 comdat align 2 {
  %2 = alloca ptr, align 8
  store ptr %0, ptr %2, align 8, !tbaa !1573
  %3 = load ptr, ptr %2, align 8
  %4 = getelementptr inbounds nuw %"class.std::__uniq_ptr_impl.118", ptr %3, i32 0, i32 0
  call void @_ZNSt5tupleIJPKcSt14default_deleteIA_S0_EEEC2ILb1ETnNSt9enable_ifIXclsr17_TupleConstraintsIXT_ES1_S4_EE37__is_implicitly_default_constructibleEEbE4typeELb1EEEv(ptr noundef nonnull align 8 dereferenceable(8) %4) #3
  ret void
}

; Function Attrs: inlinehint mustprogress nounwind uwtable
define linkonce_odr void @_ZNSt15__uniq_ptr_dataIKcSt14default_deleteIA_S0_ELb1ELb1EEC2Ev(ptr noundef nonnull align 8 dereferenceable(8) %0) unnamed_addr #4 comdat align 2 {
  %2 = alloca ptr, align 8
  store ptr %0, ptr %2, align 8, !tbaa !1662
  %3 = load ptr, ptr %2, align 8
  call void @_ZNSt15__uniq_ptr_implIKcSt14default_deleteIA_S0_EEC2Ev(ptr noundef nonnull align 8 dereferenceable(8) %3) #3
  ret void
}

; Function Attrs: mustprogress nounwind uwtable
define linkonce_odr void @_ZNSt10unique_ptrIA_KcSt14default_deleteIS1_EEC2IS3_vEEDn(ptr noundef nonnull align 8 dereferenceable(8) %0, ptr %1) unnamed_addr #8 comdat align 2 {
  %3 = alloca ptr, align 8
  %4 = alloca ptr, align 8
  store ptr %0, ptr %3, align 8, !tbaa !1571
  store ptr %1, ptr %4, align 8, !tbaa !561
  %5 = load ptr, ptr %3, align 8
  %6 = getelementptr inbounds nuw %"class.std::unique_ptr.116", ptr %5, i32 0, i32 0
  call void @llvm.memset.p0.i64(ptr align 8 %6, i8 0, i64 8, i1 false)
  call void @_ZNSt15__uniq_ptr_dataIKcSt14default_deleteIA_S0_ELb1ELb1EEC2Ev(ptr noundef nonnull align 8 dereferenceable(8) %6) #3
  ret void
}

; Function Attrs: inlinehint mustprogress nounwind uwtable
define linkonce_odr noundef i32 @_ZStorSt12_Ios_IostateS_(i32 noundef %0, i32 noundef %1) #4 comdat {
  %3 = alloca i32, align 4
  %4 = alloca i32, align 4
  store i32 %0, ptr %3, align 4, !tbaa !2164
  store i32 %1, ptr %4, align 4, !tbaa !2164
  %5 = load i32, ptr %3, align 4, !tbaa !2164
  %6 = load i32, ptr %4, align 4, !tbaa !2164
  %7 = or i32 %5, %6
  ret i32 %7
}

; Function Attrs: mustprogress nounwind uwtable
define available_externally noundef i32 @_ZNKSt9basic_iosIcSt11char_traitsIcEE7rdstateEv(ptr noundef nonnull align 8 dereferenceable(264) %0) #8 align 2 {
  %2 = alloca ptr, align 8
  store ptr %0, ptr %2, align 8, !tbaa !539
  %3 = load ptr, ptr %2, align 8
  %4 = getelementptr inbounds nuw %"class.std::ios_base", ptr %3, i32 0, i32 5
  %5 = load i32, ptr %4, align 8, !tbaa !2165
  ret i32 %5
}

; Function Attrs: mustprogress nounwind uwtable
define linkonce_odr void @_ZN7rocksdb6StatusC2Ev(ptr noundef nonnull align 8 dereferenceable(16) %0) unnamed_addr #8 comdat align 2 {
  %2 = alloca ptr, align 8
  store ptr %0, ptr %2, align 8, !tbaa !259
  %3 = load ptr, ptr %2, align 8
  %4 = getelementptr inbounds nuw %"class.rocksdb::Status", ptr %3, i32 0, i32 0
  store i8 0, ptr %4, align 8, !tbaa !302
  %5 = getelementptr inbounds nuw %"class.rocksdb::Status", ptr %3, i32 0, i32 1
  store i8 0, ptr %5, align 1, !tbaa !313
  %6 = getelementptr inbounds nuw %"class.rocksdb::Status", ptr %3, i32 0, i32 2
  store i8 0, ptr %6, align 2, !tbaa !314
  %7 = getelementptr inbounds nuw %"class.rocksdb::Status", ptr %3, i32 0, i32 3
  store i8 0, ptr %7, align 1, !tbaa !315
  %8 = getelementptr inbounds nuw %"class.rocksdb::Status", ptr %3, i32 0, i32 4
  store i8 0, ptr %8, align 4, !tbaa !316
  %9 = getelementptr inbounds nuw %"class.rocksdb::Status", ptr %3, i32 0, i32 5
  store i8 0, ptr %9, align 1, !tbaa !317
  %10 = getelementptr inbounds nuw %"class.rocksdb::Status", ptr %3, i32 0, i32 6
  call void @_ZNSt10unique_ptrIA_KcSt14default_deleteIS1_EEC2IS3_vEEDn(ptr noundef nonnull align 8 dereferenceable(8) %10, ptr null) #3
  ret void
}

; Function Attrs: mustprogress nounwind uwtable
define linkonce_odr noundef i64 @_ZNSt11char_traitsIcE6lengthEPKc(ptr noundef %0) #8 comdat align 2 {
  %2 = alloca ptr, align 8
  store ptr %0, ptr %2, align 8, !tbaa !28
  %3 = load ptr, ptr %2, align 8, !tbaa !28
  %4 = call i64 @strlen(ptr noundef %3) #3
  ret i64 %4
}

; Function Attrs: mustprogress uwtable
define available_externally void @_ZNSt9basic_iosIcSt11char_traitsIcEE8setstateESt12_Ios_Iostate(ptr noundef nonnull align 8 dereferenceable(264) %0, i32 noundef %1) #7 align 2 {
  %3 = alloca ptr, align 8
  %4 = alloca i32, align 4
  store ptr %0, ptr %3, align 8, !tbaa !539
  store i32 %1, ptr %4, align 4, !tbaa !2164
  %5 = load ptr, ptr %3, align 8
  %6 = call noundef i32 @_ZNKSt9basic_iosIcSt11char_traitsIcEE7rdstateEv(ptr noundef nonnull align 8 dereferenceable(264) %5)
  %7 = load i32, ptr %4, align 4, !tbaa !2164
  %8 = call noundef i32 @_ZStorSt12_Ios_IostateS_(i32 noundef %6, i32 noundef %7)
  call void @_ZNSt9basic_iosIcSt11char_traitsIcEE5clearESt12_Ios_Iostate(ptr noundef nonnull align 8 dereferenceable(264) %5, i32 noundef %8)
  ret void
}

; Function Attrs: mustprogress uwtable
define linkonce_odr void @_ZN7rocksdb6Status2OKEv(ptr dead_on_unwind noalias writable sret(%"class.rocksdb::Status") align 8 %0) #7 comdat align 2 {
  %2 = alloca ptr, align 8
  store ptr %0, ptr %2, align 8
  call void @_ZN7rocksdb6StatusC2Ev(ptr noundef nonnull align 8 dereferenceable(16) %0)
  ret void
}

; Function Attrs: inlinehint mustprogress uwtable
define available_externally noundef nonnull align 8 dereferenceable(8) ptr @_ZStlsISt11char_traitsIcEERSt13basic_ostreamIcT_ES5_PKc(ptr noundef nonnull align 8 dereferenceable(8) %0, ptr noundef %1) #6 {
  %3 = alloca ptr, align 8
  %4 = alloca ptr, align 8
  store ptr %0, ptr %3, align 8, !tbaa !486
  store ptr %1, ptr %4, align 8, !tbaa !28
  %5 = load ptr, ptr %4, align 8, !tbaa !28
  %6 = icmp ne ptr %5, null
  br i1 %6, label %13, label %7

7:                                                ; preds = %2
  %8 = load ptr, ptr %3, align 8, !tbaa !486
  %9 = load ptr, ptr %8, align 8, !tbaa !26
  %10 = getelementptr i8, ptr %9, i64 -24
  %11 = load i64, ptr %10, align 8
  %12 = getelementptr inbounds i8, ptr %8, i64 %11
  call void @_ZNSt9basic_iosIcSt11char_traitsIcEE8setstateESt12_Ios_Iostate(ptr noundef nonnull align 8 dereferenceable(264) %12, i32 noundef 1)
  br label %19

13:                                               ; preds = %2
  %14 = load ptr, ptr %3, align 8, !tbaa !486
  %15 = load ptr, ptr %4, align 8, !tbaa !28
  %16 = load ptr, ptr %4, align 8, !tbaa !28
  %17 = call noundef i64 @_ZNSt11char_traitsIcE6lengthEPKc(ptr noundef %16)
  %18 = call noundef nonnull align 8 dereferenceable(8) ptr @_ZSt16__ostream_insertIcSt11char_traitsIcEERSt13basic_ostreamIT_T0_ES6_PKS3_l(ptr noundef nonnull align 8 dereferenceable(8) %14, ptr noundef %15, i64 noundef %17)
  br label %19

19:                                               ; preds = %13, %7
  %20 = load ptr, ptr %3, align 8, !tbaa !486
  ret ptr %20
}

; Function Attrs: mustprogress uwtable
define internal void @_ZN7rocksdb12_GLOBAL__N_115InMemoryHandler8MarkNoopEb(ptr dead_on_unwind noalias writable sret(%"class.rocksdb::Status") align 8 %0, ptr noundef nonnull align 8 dereferenceable(72) %1, i1 noundef zeroext %2) unnamed_addr #7 align 2 {
  %4 = alloca ptr, align 8
  %5 = alloca ptr, align 8
  %6 = alloca i8, align 1
  store ptr %0, ptr %4, align 8
  store ptr %1, ptr %5, align 8, !tbaa !2236
  %7 = zext i1 %2 to i8
  store i8 %7, ptr %6, align 1, !tbaa !264
  %8 = load ptr, ptr %5, align 8
  %9 = getelementptr inbounds nuw %"class.rocksdb::(anonymous namespace)::InMemoryHandler", ptr %8, i32 0, i32 1
  %10 = load ptr, ptr %9, align 8, !tbaa !2412
  %11 = getelementptr inbounds i8, ptr %10, i64 16
  %12 = call noundef nonnull align 8 dereferenceable(8) ptr @_ZStlsISt11char_traitsIcEERSt13basic_ostreamIcT_ES5_PKc(ptr noundef nonnull align 8 dereferenceable(8) %11, ptr noundef @.str.585)
  call void @_ZN7rocksdb6Status2OKEv(ptr dead_on_unwind writable sret(%"class.rocksdb::Status") align 8 %0)
  ret void
}